; Function Attrs: mustprogress nofree norecurse nosync nounwind willreturn memory(argmem: read) uwtable
define dso_local noundef zeroext i1 @_ZNK5clang9ValueDecl13isInitCaptureEv(ptr nocapture noundef nonnull readonly align 8 dereferenceable(56) %0) local_unnamed_addr #6 align 2 {
  %2 = getelementptr inbounds nuw i8, ptr %0, i64 28
  %3 = load i32, ptr %2, align 4
  %4 = and i32 %3, 127
  %5 = add nsw i32 %4, -44
  %6 = icmp ult i32 %5, -7
  br i1 %6, label %14, label %7

7:                                                ; preds = %1
  %8 = icmp ne i32 %4, 40
  %9 = getelementptr inbounds i8, ptr %0, i64 98
  %10 = load i8, ptr %9, align 2
  %11 = and i8 %10, 1
  %12 = icmp ne i8 %11, 0
  %13 = select i1 %8, i1 %12, i1 false
  br label %14

14:                                               ; preds = %1, %7
  %.0 = phi i1 [ %13, %7 ], [ false, %1 ]
  ret i1 %.0
}